; Function Attrs: mustprogress uwtable
define void @_ZNK6casadi10ConstantMX7get_dotERKNS_2MXE(ptr dead_on_unwind noalias writable sret(%"class.casadi::MX") align 8 %0, ptr noundef nonnull align 8 dereferenceable(64) %1, ptr noundef nonnull align 8 dereferenceable(8) %2) unnamed_addr #3 align 2 personality ptr @__gxx_personality_v0 {
  %4 = alloca %"class.casadi::Matrix", align 8
  %5 = alloca %"class.casadi::Matrix", align 8
  %6 = alloca %"class.casadi::Matrix", align 8
  %7 = tail call noundef zeroext i1 @_ZNK6casadi2MX11is_constantEv(ptr noundef nonnull align 8 dereferenceable(8) %2)
  br i1 %7, label %8, label %39

8:                                                ; preds = %3
  %9 = load ptr, ptr %1, align 8
  %10 = getelementptr inbounds i8, ptr %9, i64 424
  %11 = load ptr, ptr %10, align 8
  call void %11(ptr dead_on_unwind nonnull writable sret(%"class.casadi::Matrix") align 8 %4, ptr noundef nonnull align 8 dereferenceable(64) %1)
  %12 = invoke noundef ptr @_ZNK6casadi2MXptEv(ptr noundef nonnull align 8 dereferenceable(8) %2)
          to label %13 unwind label %31

13:                                               ; preds = %8
  %14 = load ptr, ptr %12, align 8
  %15 = getelementptr inbounds i8, ptr %14, i64 424
  %16 = load ptr, ptr %15, align 8
  invoke void %16(ptr dead_on_unwind nonnull writable sret(%"class.casadi::Matrix") align 8 %5, ptr noundef nonnull align 8 dereferenceable(64) %12)
          to label %17 unwind label %31

17:                                               ; preds = %13
  invoke void @_ZN6casadi6MatrixIdE3dotERKS1_S3_(ptr dead_on_unwind nonnull writable sret(%"class.casadi::Matrix") align 8 %6, ptr noundef nonnull align 8 dereferenceable(40) %4, ptr noundef nonnull align 8 dereferenceable(40) %5)
          to label %_ZN6casadi3dotERKNS_6MatrixIdEES3_.exit unwind label %33

_ZN6casadi3dotERKNS_6MatrixIdEES3_.exit:          ; preds = %17
  invoke void @_ZN6casadi2MXC1ERKNS_6MatrixIdEE(ptr noundef nonnull align 8 dereferenceable(8) %0, ptr noundef nonnull align 8 dereferenceable(40) %6)
          to label %18 unwind label %35

18:                                               ; preds = %_ZN6casadi3dotERKNS_6MatrixIdEES3_.exit
  %19 = getelementptr inbounds i8, ptr %6, i64 16
  %20 = load ptr, ptr %19, align 8
  %.not.i.i.i.i = icmp eq ptr %20, null
  br i1 %.not.i.i.i.i, label %_ZN6casadi6MatrixIdED2Ev.exit, label %21

21:                                               ; preds = %18
  call void @_ZdlPv(ptr noundef nonnull %20) #28
  br label %_ZN6casadi6MatrixIdED2Ev.exit

_ZN6casadi6MatrixIdED2Ev.exit:                    ; preds = %18, %21
  %22 = getelementptr inbounds i8, ptr %6, i64 8
  call void @_ZN6casadi12SharedObjectD2Ev(ptr noundef nonnull align 8 dereferenceable(8) %22) #25
  %23 = getelementptr inbounds i8, ptr %5, i64 16
  %24 = load ptr, ptr %23, align 8
  %.not.i.i.i.i9 = icmp eq ptr %24, null
  br i1 %.not.i.i.i.i9, label %_ZN6casadi6MatrixIdED2Ev.exit10, label %25

25:                                               ; preds = %_ZN6casadi6MatrixIdED2Ev.exit
  call void @_ZdlPv(ptr noundef nonnull %24) #28
  br label %_ZN6casadi6MatrixIdED2Ev.exit10

_ZN6casadi6MatrixIdED2Ev.exit10:                  ; preds = %_ZN6casadi6MatrixIdED2Ev.exit, %25
  %26 = getelementptr inbounds i8, ptr %5, i64 8
  call void @_ZN6casadi12SharedObjectD2Ev(ptr noundef nonnull align 8 dereferenceable(8) %26) #25
  %27 = getelementptr inbounds i8, ptr %4, i64 16
  %28 = load ptr, ptr %27, align 8
  %.not.i.i.i.i11 = icmp eq ptr %28, null
  br i1 %.not.i.i.i.i11, label %_ZN6casadi6MatrixIdED2Ev.exit12, label %29

29:                                               ; preds = %_ZN6casadi6MatrixIdED2Ev.exit10
  call void @_ZdlPv(ptr noundef nonnull %28) #28
  br label %_ZN6casadi6MatrixIdED2Ev.exit12

_ZN6casadi6MatrixIdED2Ev.exit12:                  ; preds = %_ZN6casadi6MatrixIdED2Ev.exit10, %29
  %30 = getelementptr inbounds i8, ptr %4, i64 8
  call void @_ZN6casadi12SharedObjectD2Ev(ptr noundef nonnull align 8 dereferenceable(8) %30) #25
  br label %40

31:                                               ; preds = %13, %8
  %32 = landingpad { ptr, i32 }
          cleanup
  br label %38

33:                                               ; preds = %17
  %34 = landingpad { ptr, i32 }
          cleanup
  br label %37

35:                                               ; preds = %_ZN6casadi3dotERKNS_6MatrixIdEES3_.exit
  %36 = landingpad { ptr, i32 }
          cleanup
  call void @_ZN6casadi6MatrixIdED2Ev(ptr noundef nonnull align 8 dereferenceable(40) %6) #25
  br label %37

37:                                               ; preds = %35, %33
  %.pn = phi { ptr, i32 } [ %36, %35 ], [ %34, %33 ]
  call void @_ZN6casadi6MatrixIdED2Ev(ptr noundef nonnull align 8 dereferenceable(40) %5) #25
  br label %38

38:                                               ; preds = %37, %31
  %.pn.pn = phi { ptr, i32 } [ %.pn, %37 ], [ %32, %31 ]
  call void @_ZN6casadi6MatrixIdED2Ev(ptr noundef nonnull align 8 dereferenceable(40) %4) #25
  resume { ptr, i32 } %.pn.pn

39:                                               ; preds = %3
  tail call void @_ZNK6casadi6MXNode7get_dotERKNS_2MXE(ptr dead_on_unwind writable sret(%"class.casadi::MX") align 8 %0, ptr noundef nonnull align 8 dereferenceable(64) %1, ptr noundef nonnull align 8 dereferenceable(8) %2)
  br label %40

40:                                               ; preds = %39, %_ZN6casadi6MatrixIdED2Ev.exit12
  ret void
}